target datalayout = "e-m:e-p270:32:32-p271:32:32-p272:64:64-i64:64-i128:128-f80:128-n8:16:32:64-S128"
target triple = "x86_64-pc-linux-gnu"

%struct._zval_struct = type { %union._zend_value, %union.anon, %union.anon.2 }
%union._zend_value = type { i64 }
%union.anon = type { i32 }
%union.anon.2 = type { i32 }
%struct._php_json_parser_methods = type { ptr, ptr, ptr, ptr, ptr, ptr, ptr, ptr }
%struct._php_json_parser = type { %struct._php_json_scanner, ptr, i32, i32, %struct._php_json_parser_methods }
%struct._php_json_scanner = type { ptr, ptr, ptr, ptr, ptr, ptr, ptr, %struct._zval_struct, i32, i32, i32, i32, i32, i32 }

; Function Attrs: nounwind uwtable
define void @php_json_parser_init_ex(ptr noundef %0, ptr noundef %1, ptr noundef %2, i64 noundef %3, i32 noundef %4, i32 noundef %5, ptr noundef %6) #0 {
  %8 = alloca ptr, align 8
  %9 = alloca ptr, align 8
  %10 = alloca ptr, align 8
  %11 = alloca i64, align 8
  %12 = alloca i32, align 4
  %13 = alloca i32, align 4
  %14 = alloca ptr, align 8
  store ptr %0, ptr %8, align 8
  store ptr %1, ptr %9, align 8
  store ptr %2, ptr %10, align 8
  store i64 %3, ptr %11, align 8
  store i32 %4, ptr %12, align 4
  store i32 %5, ptr %13, align 4
  store ptr %6, ptr %14, align 8
  %15 = load ptr, ptr %8, align 8
  call void @llvm.memset.p0.i64(ptr align 8 %15, i8 0, i64 176, i1 false)
  %16 = load ptr, ptr %8, align 8
  %17 = getelementptr inbounds %struct._php_json_parser, ptr %16, i32 0, i32 0
  %18 = load ptr, ptr %10, align 8
  %19 = load i64, ptr %11, align 8
  %20 = load i32, ptr %12, align 4
  call void @php_json_scanner_init(ptr noundef %17, ptr noundef %18, i64 noundef %19, i32 noundef %20)
  %21 = load ptr, ptr %8, align 8
  %22 = getelementptr inbounds %struct._php_json_parser, ptr %21, i32 0, i32 2
  store i32 1, ptr %22, align 8
  %23 = load i32, ptr %13, align 4
  %24 = load ptr, ptr %8, align 8
  %25 = getelementptr inbounds %struct._php_json_parser, ptr %24, i32 0, i32 3
  store i32 %23, ptr %25, align 4
  %26 = load ptr, ptr %9, align 8
  %27 = load ptr, ptr %8, align 8
  %28 = getelementptr inbounds %struct._php_json_parser, ptr %27, i32 0, i32 1
  store ptr %26, ptr %28, align 8
  %29 = load ptr, ptr %8, align 8
  %30 = getelementptr inbounds %struct._php_json_parser, ptr %29, i32 0, i32 4
  %31 = load ptr, ptr %14, align 8
  call void @llvm.memcpy.p0.p0.i64(ptr align 8 %30, ptr align 8 %31, i64 64, i1 false)
  ret void
}